Certificate:
    Data:
        Version: 3 (0x2)
        Serial Number: 304 (0x130)
        Signature Algorithm: sha1WithRSAEncryption
        Issuer: C=US, ST=CA, L=SantaClara, O=Dell-Santanet, CN=Dell-Santanet CA/emailAddress=chris_goh@dell.com
        Validity
            Not Before: Dec 21 01:58:01 2016 GMT
            Not After : Dec 19 01:58:01 2026 GMT
        Subject: C=US, ST=MA, L=Hopkinton, O=Dell-Solutions, OU=Michael Tien/Service Provider, CN=Carlos-Valencia2-santanet1/name=Carlos-Valencia2-santanet1/emailAddress=carlos.valencia2@emc.com
        Subject Public Key Info:
            Public Key Algorithm: rsaEncryption
            RSA Public Key: (1024 bit)
                Modulus (1024 bit):
                    00:c4:d3:00:38:f4:98:41:b1:4c:70:99:ad:ab:35:
                    2a:4f:08:09:b4:fc:46:2a:54:38:9b:7a:12:20:2a:
                    b9:cc:68:b0:c5:24:1b:bb:58:74:03:c3:a0:57:44:
                    17:e1:96:3b:cc:18:fc:3b:12:bd:5e:14:9b:e7:4e:
                    b8:9e:c7:d8:1b:bd:1c:48:0c:c5:3a:bd:0c:49:03:
                    26:db:2e:ca:a9:3f:56:95:44:97:1b:45:d9:bf:ba:
                    0f:b5:08:18:7f:2b:9e:bb:00:c0:19:df:e1:c7:e2:
                    08:ef:92:df:84:b8:f9:fd:1c:0b:1a:41:14:d7:f9:
                    ef:89:c3:31:66:8b:54:33:9f
                Exponent: 65537 (0x10001)
        X509v3 extensions:
            X509v3 Basic Constraints: 
                CA:FALSE
            Netscape Comment: 
                Easy-RSA Generated Certificate
            X509v3 Subject Key Identifier: 
                FF:9E:C2:34:CA:66:B5:73:59:70:4B:CA:35:C4:04:E3:62:74:CF:9C
            X509v3 Authority Key Identifier: 
                keyid:9F:2B:62:F1:D7:C3:5E:10:BD:65:D2:75:22:26:D4:0E:EB:91:22:4F
                DirName:/C=US/ST=CA/L=SantaClara/O=Dell-Santanet/CN=Dell-Santanet CA/emailAddress=chris_goh@dell.com
                serial:FA:D8:C7:6E:40:E3:70:20

            X509v3 Extended Key Usage: 
                TLS Web Client Authentication
            X509v3 Key Usage: 
                Digital Signature
    Signature Algorithm: sha1WithRSAEncryption
        20:ac:c9:29:0e:bf:67:f9:73:94:0a:35:07:6c:69:13:81:a1:
        ff:b0:42:ba:74:87:f8:5b:4b:da:59:00:60:18:37:c2:f3:56:
        1f:e3:b1:39:e6:5f:b0:07:e1:01:c3:22:42:0a:a0:75:f3:7c:
        5c:4e:39:10:bf:d4:7d:84:ef:36:73:f8:0c:99:e2:8d:7b:09:
        68:0e:6e:e0:84:e3:0b:f9:04:e3:b6:bf:cf:e1:67:2a:3a:e6:
        92:99:3d:5f:d5:74:a4:71:fa:ca:6d:03:49:86:49:ea:4d:2f:
        dc:a1:a9:17:24:67:d0:35:d8:ae:ae:fa:48:a8:e5:e5:b2:10:
        4f:39
-----BEGIN CERTIFICATE-----
MIIEHjCCA4egAwIBAgICATAwDQYJKoZIhvcNAQEFBQAwgYUxCzAJBgNVBAYTAlVT
MQswCQYDVQQIEwJDQTETMBEGA1UEBxMKU2FudGFDbGFyYTEWMBQGA1UEChMNRGVs
bC1TYW50YW5ldDEZMBcGA1UEAxMQRGVsbC1TYW50YW5ldCBDQTEhMB8GCSqGSIb3
DQEJARYSY2hyaXNfZ29oQGRlbGwuY29tMB4XDTE2MTIyMTAxNTgwMVoXDTI2MTIx
OTAxNTgwMVowgeIxCzAJBgNVBAYTAlVTMQswCQYDVQQIEwJNQTESMBAGA1UEBxMJ
SG9wa2ludG9uMRcwFQYDVQQKEw5EZWxsLVNvbHV0aW9uczEmMCQGA1UECxMdTWlj
aGFlbCBUaWVuL1NlcnZpY2UgUHJvdmlkZXIxIzAhBgNVBAMTGkNhcmxvcy1WYWxl
bmNpYTItc2FudGFuZXQxMSMwIQYDVQQpExpDYXJsb3MtVmFsZW5jaWEyLXNhbnRh
bmV0MTEnMCUGCSqGSIb3DQEJARYYY2FybG9zLnZhbGVuY2lhMkBlbWMuY29tMIGf
MA0GCSqGSIb3DQEBAQUAA4GNADCBiQKBgQDE0wA49JhBsUxwma2rNSpPCAm0/EYq
VDibehIgKrnMaLDFJBu7WHQDw6BXRBfhljvMGPw7Er1eFJvnTriex9gbvRxIDMU6
vQxJAybbLsqpP1aVRJcbRdm/ug+1CBh/K567AMAZ3+HH4gjvkt+EuPn9HAsaQRTX
+e+JwzFmi1QznwIDAQABo4IBPDCCATgwCQYDVR0TBAIwADAtBglghkgBhvhCAQ0E
IBYeRWFzeS1SU0EgR2VuZXJhdGVkIENlcnRpZmljYXRlMB0GA1UdDgQWBBT/nsI0
yma1c1lwS8o1xATjYnTPnDCBugYDVR0jBIGyMIGvgBSfK2Lx18NeEL1l0nUiJtQO
65EiT6GBi6SBiDCBhTELMAkGA1UEBhMCVVMxCzAJBgNVBAgTAkNBMRMwEQYDVQQH
EwpTYW50YUNsYXJhMRYwFAYDVQQKEw1EZWxsLVNhbnRhbmV0MRkwFwYDVQQDExBE
ZWxsLVNhbnRhbmV0IENBMSEwHwYJKoZIhvcNAQkBFhJjaHJpc19nb2hAZGVsbC5j
b22CCQD62MduQONwIDATBgNVHSUEDDAKBggrBgEFBQcDAjALBgNVHQ8EBAMCB4Aw
DQYJKoZIhvcNAQEFBQADgYEAIKzJKQ6/Z/lzlAo1B2xpE4Gh/7BCunSH+FtL2lkA
YBg3wvNWH+OxOeZfsAfhAcMiQgqgdfN8XE45EL/UfYTvNnP4DJnijXsJaA5u4ITj
C/kE47a/z+FnKjrmkpk9X9V0pHH6ym0DSYZJ6k0v3KGpFyRn0DXYrq76SKjl5bIQ
Tzk=
-----END CERTIFICATE-----
